target datalayout = "e-m:e-p270:32:32-p271:32:32-p272:64:64-i64:64-i128:128-f80:128-n8:16:32:64-S128"
target triple = "x86_64-pc-linux-gnu"

%class.MainWindow = type { %class.QMainWindow, %class.QList.0, ptr, ptr, %class.QSplitter, %class.QSplitter, %class.QWidget, %class.QList.4, ptr, ptr, ptr, ptr, ptr, ptr }
%class.QMainWindow = type { %class.QWidget }
%class.QList.0 = type { %struct.QArrayDataPointer.3 }
%struct.QArrayDataPointer.3 = type { ptr, ptr, i64 }
%class.QSplitter = type { %class.QFrame }
%class.QFrame = type { %class.QWidget }
%class.QWidget = type { %class.QObject, %class.QPaintDevice.base, ptr }
%class.QObject = type { ptr, %class.QScopedPointer }
%class.QScopedPointer = type { ptr }
%class.QPaintDevice.base = type <{ ptr, i16 }>
%class.QList.4 = type { %struct.QArrayDataPointer.7 }
%struct.QArrayDataPointer.7 = type { ptr, ptr, i64 }

; Function Attrs: mustprogress uwtable
define noundef ptr @_ZNK10MainWindow15frameDataForRowEi(ptr noundef nonnull align 8 dereferenceable(272) %0, i32 noundef %1) #3 align 2 {
  %3 = alloca ptr, align 8
  %4 = alloca ptr, align 8
  %5 = alloca i32, align 4
  store ptr %0, ptr %4, align 8
  store i32 %1, ptr %5, align 4
  %6 = load ptr, ptr %4, align 8
  %7 = getelementptr inbounds %class.MainWindow, ptr %6, i32 0, i32 8
  %8 = load ptr, ptr %7, align 8
  %9 = icmp ne ptr %8, null
  br i1 %9, label %10, label %15

10:                                               ; preds = %2
  %11 = getelementptr inbounds %class.MainWindow, ptr %6, i32 0, i32 8
  %12 = load ptr, ptr %11, align 8
  %13 = load i32, ptr %5, align 4
  %14 = call noundef ptr @_ZNK10PacketList14getFDataForRowEi(ptr noundef nonnull align 8 dereferenceable(464) %12, i32 noundef %13)
  store ptr %14, ptr %3, align 8
  br label %16

15:                                               ; preds = %2
  store ptr null, ptr %3, align 8
  br label %16

16:                                               ; preds = %15, %10
  %17 = load ptr, ptr %3, align 8
  ret ptr %17
}