; Function Attrs: mustprogress uwtable
define noundef ptr @_ZNK10MainWindow15frameDataForRowEi(ptr nocapture noundef nonnull readonly align 8 dereferenceable(272) %0, i32 noundef %1) local_unnamed_addr #2 align 2 {
  %3 = getelementptr inbounds i8, ptr %0, i64 224
  %4 = load ptr, ptr %3, align 8
  %.not = icmp eq ptr %4, null
  br i1 %.not, label %7, label %5

5:                                                ; preds = %2
  %6 = tail call noundef ptr @_ZNK10PacketList14getFDataForRowEi(ptr noundef nonnull align 8 dereferenceable(464) %4, i32 noundef %1)
  br label %7

7:                                                ; preds = %2, %5
  %.0 = phi ptr [ %6, %5 ], [ null, %2 ]
  ret ptr %.0
}